target datalayout = "e-m:e-p270:32:32-p271:32:32-p272:64:64-i64:64-i128:128-f80:128-n8:16:32:64-S128"
target triple = "x86_64-pc-linux-gnu"

%"class.cv::Vec" = type { %"class.cv::Matx" }
%"class.cv::Matx" = type { [3 x float] }
%class.Vec3fTo.2 = type { %"class.cv::Vec" }

; Function Attrs: inlinehint mustprogress nounwind uwtable
define linkonce_odr hidden void @_ZN2cv4MatxIfLi3ELi1EEC2Efff(ptr noundef nonnull align 4 dereferenceable(12) %0, float noundef %1, float noundef %2, float noundef %3) unnamed_addr #1 comdat align 2 {
  %5 = alloca ptr, align 8
  %6 = alloca float, align 4
  %7 = alloca float, align 4
  %8 = alloca float, align 4
  %9 = alloca i32, align 4
  store ptr %0, ptr %5, align 8, !tbaa !87
  store float %1, ptr %6, align 4, !tbaa !8
  store float %2, ptr %7, align 4, !tbaa !8
  store float %3, ptr %8, align 4, !tbaa !8
  %10 = load ptr, ptr %5, align 8
  %11 = load float, ptr %6, align 4, !tbaa !8
  %12 = getelementptr inbounds nuw %"class.cv::Matx", ptr %10, i32 0, i32 0
  %13 = getelementptr inbounds [3 x float], ptr %12, i64 0, i64 0
  store float %11, ptr %13, align 4, !tbaa !8
  %14 = load float, ptr %7, align 4, !tbaa !8
  %15 = getelementptr inbounds nuw %"class.cv::Matx", ptr %10, i32 0, i32 0
  %16 = getelementptr inbounds [3 x float], ptr %15, i64 0, i64 1
  store float %14, ptr %16, align 4, !tbaa !8
  %17 = load float, ptr %8, align 4, !tbaa !8
  %18 = getelementptr inbounds nuw %"class.cv::Matx", ptr %10, i32 0, i32 0
  %19 = getelementptr inbounds [3 x float], ptr %18, i64 0, i64 2
  store float %17, ptr %19, align 4, !tbaa !8
  call void @llvm.lifetime.start.p0(i64 4, ptr %9) #16
  store i32 3, ptr %9, align 4, !tbaa !12
  br label %20

20:                                               ; preds = %29, %4
  %21 = load i32, ptr %9, align 4, !tbaa !12
  %22 = icmp slt i32 %21, 3
  br i1 %22, label %24, label %23

23:                                               ; preds = %20
  call void @llvm.lifetime.end.p0(i64 4, ptr %9) #16
  br label %32

24:                                               ; preds = %20
  %25 = getelementptr inbounds nuw %"class.cv::Matx", ptr %10, i32 0, i32 0
  %26 = load i32, ptr %9, align 4, !tbaa !12
  %27 = sext i32 %26 to i64
  %28 = getelementptr inbounds [3 x float], ptr %25, i64 0, i64 %27
  store float 0.000000e+00, ptr %28, align 4, !tbaa !8
  br label %29

29:                                               ; preds = %24
  %30 = load i32, ptr %9, align 4, !tbaa !12
  %31 = add nsw i32 %30, 1
  store i32 %31, ptr %9, align 4, !tbaa !12
  br label %20, !llvm.loop !89

32:                                               ; preds = %23
  ret void
}

; Function Attrs: inlinehint mustprogress uwtable
define linkonce_odr hidden void @_ZN2cv3VecIfLi3EEC2Efff(ptr noundef nonnull align 4 dereferenceable(12) %0, float noundef %1, float noundef %2, float noundef %3) unnamed_addr #2 comdat align 2 {
  %5 = alloca ptr, align 8
  %6 = alloca float, align 4
  %7 = alloca float, align 4
  %8 = alloca float, align 4
  store ptr %0, ptr %5, align 8, !tbaa !10
  store float %1, ptr %6, align 4, !tbaa !8
  store float %2, ptr %7, align 4, !tbaa !8
  store float %3, ptr %8, align 4, !tbaa !8
  %9 = load ptr, ptr %5, align 8
  %10 = load float, ptr %6, align 4, !tbaa !8
  %11 = load float, ptr %7, align 4, !tbaa !8
  %12 = load float, ptr %8, align 4, !tbaa !8
  call void @_ZN2cv4MatxIfLi3ELi1EEC2Efff(ptr noundef nonnull align 4 dereferenceable(12) %9, float noundef %10, float noundef %11, float noundef %12)
  ret void
}

; Function Attrs: inlinehint mustprogress nounwind uwtable
define linkonce_odr hidden noundef nonnull align 4 dereferenceable(4) ptr @_ZN2cv3VecIfLi3EEixEi(ptr noundef nonnull align 4 dereferenceable(12) %0, i32 noundef %1) #1 comdat align 2 {
  %3 = alloca ptr, align 8
  %4 = alloca i32, align 4
  store ptr %0, ptr %3, align 8, !tbaa !10
  store i32 %1, ptr %4, align 4, !tbaa !12
  %5 = load ptr, ptr %3, align 8
  %6 = getelementptr inbounds nuw %"class.cv::Matx", ptr %5, i32 0, i32 0
  %7 = load i32, ptr %4, align 4, !tbaa !12
  %8 = sext i32 %7 to i64
  %9 = getelementptr inbounds [3 x float], ptr %6, i64 0, i64 %8
  ret ptr %9
}

; Function Attrs: mustprogress uwtable
define hidden void @_ZN7Vec3fToIN2cv3VecIhLi3EEEE4makeEi(ptr dead_on_unwind noalias writable sret(%"class.cv::Vec") align 4 %0, ptr noundef nonnull align 4 dereferenceable(12) %1, i32 noundef %2) #0 align 2 {
  %4 = alloca ptr, align 8
  %5 = alloca ptr, align 8
  %6 = alloca i32, align 4
  store ptr %0, ptr %4, align 8
  store ptr %1, ptr %5, align 8, !tbaa !14
  store i32 %2, ptr %6, align 4, !tbaa !12
  %7 = load ptr, ptr %5, align 8
  %8 = getelementptr inbounds nuw %class.Vec3fTo.2, ptr %7, i32 0, i32 0
  %9 = call noundef nonnull align 4 dereferenceable(4) ptr @_ZN2cv3VecIfLi3EEixEi(ptr noundef nonnull align 4 dereferenceable(12) %8, i32 noundef 0)
  %10 = load float, ptr %9, align 4, !tbaa !8
  %11 = load i32, ptr %6, align 4, !tbaa !12
  %12 = sitofp i32 %11 to float
  %13 = fmul float %10, %12
  %14 = fptosi float %13 to i32
  %15 = load i32, ptr %6, align 4, !tbaa !12
  %16 = sdiv i32 %14, %15
  %17 = sitofp i32 %16 to float
  %18 = getelementptr inbounds nuw %class.Vec3fTo.2, ptr %7, i32 0, i32 0
  %19 = call noundef nonnull align 4 dereferenceable(4) ptr @_ZN2cv3VecIfLi3EEixEi(ptr noundef nonnull align 4 dereferenceable(12) %18, i32 noundef 1)
  %20 = load float, ptr %19, align 4, !tbaa !8
  %21 = load i32, ptr %6, align 4, !tbaa !12
  %22 = sitofp i32 %21 to float
  %23 = fmul float %20, %22
  %24 = fptosi float %23 to i32
  %25 = load i32, ptr %6, align 4, !tbaa !12
  %26 = sdiv i32 %24, %25
  %27 = sitofp i32 %26 to float
  %28 = getelementptr inbounds nuw %class.Vec3fTo.2, ptr %7, i32 0, i32 0
  %29 = call noundef nonnull align 4 dereferenceable(4) ptr @_ZN2cv3VecIfLi3EEixEi(ptr noundef nonnull align 4 dereferenceable(12) %28, i32 noundef 2)
  %30 = load float, ptr %29, align 4, !tbaa !8
  %31 = load i32, ptr %6, align 4, !tbaa !12
  %32 = sitofp i32 %31 to float
  %33 = fmul float %30, %32
  %34 = fptosi float %33 to i32
  %35 = load i32, ptr %6, align 4, !tbaa !12
  %36 = sdiv i32 %34, %35
  %37 = sitofp i32 %36 to float
  call void @_ZN2cv3VecIfLi3EEC2Efff(ptr noundef nonnull align 4 dereferenceable(12) %0, float noundef %17, float noundef %27, float noundef %37)
  ret void
}