; Function Attrs: mustprogress nofree norecurse nosync nounwind willreturn memory(argmem: readwrite) uwtable
define hidden void @_ZN7Vec3fToIN2cv3VecIhLi3EEEE4makeEi(ptr dead_on_unwind noalias writable writeonly sret(%"class.cv::Vec") align 4 captures(none) initializes((0, 12)) %0, ptr noundef nonnull readonly align 4 captures(none) dereferenceable(12) %1, i32 noundef %2) local_unnamed_addr #4 align 2 {
  %4 = load float, ptr %1, align 4, !tbaa !3
  %5 = sitofp i32 %2 to float
  %6 = fmul float %4, %5
  %7 = fptosi float %6 to i32
  %8 = sdiv i32 %7, %2
  %9 = sitofp i32 %8 to float
  %10 = getelementptr inbounds nuw i8, ptr %1, i64 4
  %11 = load float, ptr %10, align 4, !tbaa !3
  %12 = fmul float %11, %5
  %13 = fptosi float %12 to i32
  %14 = sdiv i32 %13, %2
  %15 = sitofp i32 %14 to float
  %16 = getelementptr inbounds nuw i8, ptr %1, i64 8
  %17 = load float, ptr %16, align 4, !tbaa !3
  %18 = fmul float %17, %5
  %19 = fptosi float %18 to i32
  %20 = sdiv i32 %19, %2
  %21 = sitofp i32 %20 to float
  store float %9, ptr %0, align 4, !tbaa !3
  %22 = getelementptr inbounds nuw i8, ptr %0, i64 4
  store float %15, ptr %22, align 4, !tbaa !3
  %23 = getelementptr inbounds nuw i8, ptr %0, i64 8
  store float %21, ptr %23, align 4, !tbaa !3
  ret void
}